target datalayout = "e-m:e-p270:32:32-p271:32:32-p272:64:64-i64:64-i128:128-f80:128-n8:16:32:64-S128"
target triple = "x86_64-unknown-linux-gnu"

%"class.std::vector" = type { %"struct.std::_Vector_base" }
%"struct.std::_Vector_base" = type { %"struct.std::_Vector_base<std::optional<std::basic_string_view<char>>, std::allocator<std::optional<std::basic_string_view<char>>>>::_Vector_impl" }
%"struct.std::_Vector_base<std::optional<std::basic_string_view<char>>, std::allocator<std::optional<std::basic_string_view<char>>>>::_Vector_impl" = type { %"struct.std::_Vector_base<std::optional<std::basic_string_view<char>>, std::allocator<std::optional<std::basic_string_view<char>>>>::_Vector_impl_data" }
%"struct.std::_Vector_base<std::optional<std::basic_string_view<char>>, std::allocator<std::optional<std::basic_string_view<char>>>>::_Vector_impl_data" = type { ptr, ptr, ptr }
%"class.std::__shared_count" = type { ptr }
%"class.std::shared_ptr.29" = type { %"class.std::__shared_ptr.30" }
%"class.std::__shared_ptr.30" = type { ptr, %"class.std::__shared_count" }
%"class.facebook::velox::row::(anonymous namespace)::UnsafeRowDataBatchIterator" = type { ptr, ptr, i64, %"class.std::shared_ptr.29" }
%"struct.facebook::velox::row::(anonymous namespace)::StructBatchIterator" = type { %"class.facebook::velox::row::(anonymous namespace)::UnsafeRowDataBatchIterator", i64, ptr, i64, %"class.std::vector" }

; Function Attrs: mustprogress uwtable
define internal noundef i64 @_ZNK8facebook5velox3row12_GLOBAL__N_119StructBatchIterator4sizeEm(ptr noundef nonnull align 8 dereferenceable(88) %this, i64 noundef %idx) unnamed_addr #1 align 2 {
entry:
  %this.addr = alloca ptr, align 8
  %idx.addr = alloca i64, align 8
  store ptr %this, ptr %this.addr, align 8
  store i64 %idx, ptr %idx.addr, align 8
  %this1 = load ptr, ptr %this.addr, align 8
  %0 = load i64, ptr %idx.addr, align 8
  %vtable = load ptr, ptr %this1, align 8
  %vfn = getelementptr inbounds ptr, ptr %vtable, i64 2
  %1 = load ptr, ptr %vfn, align 8
  %call = call noundef zeroext i1 %1(ptr noundef nonnull align 8 dereferenceable(40) %this1, i64 noundef %0)
  br i1 %call, label %cond.true, label %cond.false

cond.true:                                        ; preds = %entry
  br label %cond.end

cond.false:                                       ; preds = %entry
  %numElements_ = getelementptr inbounds %"struct.facebook::velox::row::(anonymous namespace)::StructBatchIterator", ptr %this1, i32 0, i32 3
  %2 = load i64, ptr %numElements_, align 8
  br label %cond.end

cond.end:                                         ; preds = %cond.false, %cond.true
  %cond = phi i64 [ 0, %cond.true ], [ %2, %cond.false ]
  ret i64 %cond
}