; Function Attrs: mustprogress uwtable
define internal noundef i64 @_ZNK8facebook5velox3row12_GLOBAL__N_119StructBatchIterator4sizeEm(ptr noundef nonnull align 8 dereferenceable(88) %this, i64 noundef %idx) unnamed_addr #1 align 2 {
entry:
  %vtable = load ptr, ptr %this, align 8
  %vfn = getelementptr inbounds i8, ptr %vtable, i64 16
  %0 = load ptr, ptr %vfn, align 8
  %call = tail call noundef zeroext i1 %0(ptr noundef nonnull align 8 dereferenceable(40) %this, i64 noundef %idx)
  %numElements_ = getelementptr inbounds i8, ptr %this, i64 56
  %1 = load i64, ptr %numElements_, align 8
  %cond = select i1 %call, i64 0, i64 %1
  ret i64 %cond
}